; ModuleID = '58/736.c'
source_filename = "58/736.c"
target datalayout = "e-m:e-p270:32:32-p271:32:32-p272:64:64-i64:64-f80:128-n8:16:32:64-S128"
target triple = "x86_64-pc-linux-gnu"

@.str = private unnamed_addr constant [3 x i8] c"%d\00", align 1
@.str.1 = private unnamed_addr constant [3 x i8] c"1\0A\00", align 1
@.str.2 = private unnamed_addr constant [3 x i8] c"0\0A\00", align 1

; Function Attrs: noinline nounwind uwtable
define dso_local i32 @main() #0 {
  %1 = alloca i32, align 4
  %2 = alloca [100 x [80 x i8]], align 16
  %3 = alloca [100 x i8], align 16
  %4 = alloca i32, align 4
  %5 = alloca i32, align 4
  %6 = alloca i32, align 4
  %7 = alloca i32, align 4
  %8 = alloca i32, align 4
  store i32 0, i32* %1, align 4
  store i32 0, i32* %8, align 4
  %9 = call i32 (i8*, ...) @__isoc99_scanf(i8* getelementptr inbounds ([3 x i8], [3 x i8]* @.str, i64 0, i64 0), i32* %4)
  %10 = getelementptr inbounds [100 x i8], [100 x i8]* %3, i64 0, i64 0
  %11 = call i32 (i8*, ...) bitcast (i32 (...)* @gets to i32 (i8*, ...)*)(i8* %10)
  store i32 0, i32* %6, align 4
  br label %12

12:                                               ; preds = %159, %0
  %13 = load i32, i32* %6, align 4
  %14 = load i32, i32* %4, align 4
  %15 = icmp slt i32 %13, %14
  br i1 %15, label %16, label %162

16:                                               ; preds = %12
  %17 = load i32, i32* %6, align 4
  %18 = sext i32 %17 to i64
  %19 = getelementptr inbounds [100 x [80 x i8]], [100 x [80 x i8]]* %2, i64 0, i64 %18
  %20 = getelementptr inbounds [80 x i8], [80 x i8]* %19, i64 0, i64 0
  %21 = call i32 (i8*, ...) bitcast (i32 (...)* @gets to i32 (i8*, ...)*)(i8* %20)
  %22 = load i32, i32* %6, align 4
  %23 = sext i32 %22 to i64
  %24 = getelementptr inbounds [100 x [80 x i8]], [100 x [80 x i8]]* %2, i64 0, i64 %23
  %25 = getelementptr inbounds [80 x i8], [80 x i8]* %24, i64 0, i64 0
  %26 = call i64 @strlen(i8* %25) #3
  %27 = trunc i64 %26 to i32
  store i32 %27, i32* %5, align 4
  store i32 0, i32* %7, align 4
  br label %28

28:                                               ; preds = %148, %16
  %29 = load i32, i32* %7, align 4
  %30 = load i32, i32* %5, align 4
  %31 = icmp slt i32 %29, %30
  br i1 %31, label %32, label %151

32:                                               ; preds = %28
  %33 = load i32, i32* %6, align 4
  %34 = sext i32 %33 to i64
  %35 = getelementptr inbounds [100 x [80 x i8]], [100 x [80 x i8]]* %2, i64 0, i64 %34
  %36 = getelementptr inbounds [80 x i8], [80 x i8]* %35, i64 0, i64 0
  %37 = load i8, i8* %36, align 16
  %38 = sext i8 %37 to i32
  %39 = icmp sge i32 %38, 65
  br i1 %39, label %40, label %48

40:                                               ; preds = %32
  %41 = load i32, i32* %6, align 4
  %42 = sext i32 %41 to i64
  %43 = getelementptr inbounds [100 x [80 x i8]], [100 x [80 x i8]]* %2, i64 0, i64 %42
  %44 = getelementptr inbounds [80 x i8], [80 x i8]* %43, i64 0, i64 0
  %45 = load i8, i8* %44, align 16
  %46 = sext i8 %45 to i32
  %47 = icmp sle i32 %46, 90
  br i1 %47, label %72, label %48

48:                                               ; preds = %40, %32
  %49 = load i32, i32* %6, align 4
  %50 = sext i32 %49 to i64
  %51 = getelementptr inbounds [100 x [80 x i8]], [100 x [80 x i8]]* %2, i64 0, i64 %50
  %52 = getelementptr inbounds [80 x i8], [80 x i8]* %51, i64 0, i64 0
  %53 = load i8, i8* %52, align 16
  %54 = sext i8 %53 to i32
  %55 = icmp sge i32 %54, 97
  br i1 %55, label %56, label %64

56:                                               ; preds = %48
  %57 = load i32, i32* %6, align 4
  %58 = sext i32 %57 to i64
  %59 = getelementptr inbounds [100 x [80 x i8]], [100 x [80 x i8]]* %2, i64 0, i64 %58
  %60 = getelementptr inbounds [80 x i8], [80 x i8]* %59, i64 0, i64 0
  %61 = load i8, i8* %60, align 16
  %62 = sext i8 %61 to i32
  %63 = icmp sle i32 %62, 122
  br i1 %63, label %72, label %64

64:                                               ; preds = %56, %48
  %65 = load i32, i32* %6, align 4
  %66 = sext i32 %65 to i64
  %67 = getelementptr inbounds [100 x [80 x i8]], [100 x [80 x i8]]* %2, i64 0, i64 %66
  %68 = getelementptr inbounds [80 x i8], [80 x i8]* %67, i64 0, i64 0
  %69 = load i8, i8* %68, align 16
  %70 = sext i8 %69 to i32
  %71 = icmp eq i32 %70, 95
  br i1 %71, label %72, label %144

72:                                               ; preds = %64, %56, %40
  %73 = load i32, i32* %6, align 4
  %74 = sext i32 %73 to i64
  %75 = getelementptr inbounds [100 x [80 x i8]], [100 x [80 x i8]]* %2, i64 0, i64 %74
  %76 = load i32, i32* %7, align 4
  %77 = sext i32 %76 to i64
  %78 = getelementptr inbounds [80 x i8], [80 x i8]* %75, i64 0, i64 %77
  %79 = load i8, i8* %78, align 1
  %80 = sext i8 %79 to i32
  %81 = icmp sge i32 %80, 65
  br i1 %81, label %82, label %92

82:                                               ; preds = %72
  %83 = load i32, i32* %6, align 4
  %84 = sext i32 %83 to i64
  %85 = getelementptr inbounds [100 x [80 x i8]], [100 x [80 x i8]]* %2, i64 0, i64 %84
  %86 = load i32, i32* %7, align 4
  %87 = sext i32 %86 to i64
  %88 = getelementptr inbounds [80 x i8], [80 x i8]* %85, i64 0, i64 %87
  %89 = load i8, i8* %88, align 1
  %90 = sext i8 %89 to i32
  %91 = icmp sle i32 %90, 90
  br i1 %91, label %142, label %92

92:                                               ; preds = %82, %72
  %93 = load i32, i32* %6, align 4
  %94 = sext i32 %93 to i64
  %95 = getelementptr inbounds [100 x [80 x i8]], [100 x [80 x i8]]* %2, i64 0, i64 %94
  %96 = load i32, i32* %7, align 4
  %97 = sext i32 %96 to i64
  %98 = getelementptr inbounds [80 x i8], [80 x i8]* %95, i64 0, i64 %97
  %99 = load i8, i8* %98, align 1
  %100 = sext i8 %99 to i32
  %101 = icmp sge i32 %100, 97
  br i1 %101, label %102, label %112

102:                                              ; preds = %92
  %103 = load i32, i32* %6, align 4
  %104 = sext i32 %103 to i64
  %105 = getelementptr inbounds [100 x [80 x i8]], [100 x [80 x i8]]* %2, i64 0, i64 %104
  %106 = load i32, i32* %7, align 4
  %107 = sext i32 %106 to i64
  %108 = getelementptr inbounds [80 x i8], [80 x i8]* %105, i64 0, i64 %107
  %109 = load i8, i8* %108, align 1
  %110 = sext i8 %109 to i32
  %111 = icmp sle i32 %110, 122
  br i1 %111, label %142, label %112

112:                                              ; preds = %102, %92
  %113 = load i32, i32* %6, align 4
  %114 = sext i32 %113 to i64
  %115 = getelementptr inbounds [100 x [80 x i8]], [100 x [80 x i8]]* %2, i64 0, i64 %114
  %116 = load i32, i32* %7, align 4
  %117 = sext i32 %116 to i64
  %118 = getelementptr inbounds [80 x i8], [80 x i8]* %115, i64 0, i64 %117
  %119 = load i8, i8* %118, align 1
  %120 = sext i8 %119 to i32
  %121 = icmp eq i32 %120, 95
  br i1 %121, label %142, label %122

122:                                              ; preds = %112
  %123 = load i32, i32* %6, align 4
  %124 = sext i32 %123 to i64
  %125 = getelementptr inbounds [100 x [80 x i8]], [100 x [80 x i8]]* %2, i64 0, i64 %124
  %126 = load i32, i32* %7, align 4
  %127 = sext i32 %126 to i64
  %128 = getelementptr inbounds [80 x i8], [80 x i8]* %125, i64 0, i64 %127
  %129 = load i8, i8* %128, align 1
  %130 = sext i8 %129 to i32
  %131 = icmp sge i32 %130, 48
  br i1 %131, label %132, label %144

132:                                              ; preds = %122
  %133 = load i32, i32* %6, align 4
  %134 = sext i32 %133 to i64
  %135 = getelementptr inbounds [100 x [80 x i8]], [100 x [80 x i8]]* %2, i64 0, i64 %134
  %136 = load i32, i32* %7, align 4
  %137 = sext i32 %136 to i64
  %138 = getelementptr inbounds [80 x i8], [80 x i8]* %135, i64 0, i64 %137
  %139 = load i8, i8* %138, align 1
  %140 = sext i8 %139 to i32
  %141 = icmp sle i32 %140, 57
  br i1 %141, label %142, label %144

142:                                              ; preds = %132, %112, %102, %82
  %143 = load i32, i32* %8, align 4
  store i32 %143, i32* %8, align 4
  br label %147

144:                                              ; preds = %132, %122, %64
  %145 = load i32, i32* %8, align 4
  %146 = add nsw i32 %145, 1
  store i32 %146, i32* %8, align 4
  br label %147

147:                                              ; preds = %144, %142
  br label %148

148:                                              ; preds = %147
  %149 = load i32, i32* %7, align 4
  %150 = add nsw i32 %149, 1
  store i32 %150, i32* %7, align 4
  br label %28

151:                                              ; preds = %28
  %152 = load i32, i32* %8, align 4
  %153 = icmp eq i32 %152, 0
  br i1 %153, label %154, label %156

154:                                              ; preds = %151
  %155 = call i32 (i8*, ...) @printf(i8* getelementptr inbounds ([3 x i8], [3 x i8]* @.str.1, i64 0, i64 0))
  br label %158

156:                                              ; preds = %151
  %157 = call i32 (i8*, ...) @printf(i8* getelementptr inbounds ([3 x i8], [3 x i8]* @.str.2, i64 0, i64 0))
  br label %158

158:                                              ; preds = %156, %154
  store i32 0, i32* %8, align 4
  br label %159

159:                                              ; preds = %158
  %160 = load i32, i32* %6, align 4
  %161 = add nsw i32 %160, 1
  store i32 %161, i32* %6, align 4
  br label %12

162:                                              ; preds = %12
  ret i32 0
}

declare dso_local i32 @__isoc99_scanf(i8*, ...) #1

declare dso_local i32 @gets(...) #1

; Function Attrs: nounwind readonly
declare dso_local i64 @strlen(i8*) #2

declare dso_local i32 @printf(i8*, ...) #1


!llvm.module.flags = !{!0}
!llvm.ident = !{!1}

!0 = !{i32 1, !"wchar_size", i32 4}
!1 = !{!"clang version 10.0.0-4ubuntu1 "}
